; Function Attrs: null_pointer_is_valid sspstrong uwtable
define internal range(i32 -2147483648, 5) i32 @dissect_elink_interface_control(ptr noundef %0, ptr noundef %1, ptr noundef %2, ptr noundef %3, i32 noundef %4, i32 noundef %5) #0 {
  %7 = icmp slt i32 %5, 4
  br i1 %7, label %8, label %10

8:                                                ; preds = %6
  %9 = tail call ptr @expert_add_info(ptr noundef %0, ptr noundef %2, ptr noundef nonnull @ei_mal_elink_interface_control)
  br label %17

10:                                               ; preds = %6
  %11 = load i32, ptr @hf_elink_icontrol_control_bits, align 4
  %12 = load i32, ptr @ett_elink_icontrol_bits, align 4
  %13 = tail call ptr @proto_tree_add_bitmask(ptr noundef %1, ptr noundef %3, i32 noundef %4, i32 noundef %11, i32 noundef %12, ptr noundef nonnull @dissect_elink_interface_control.control_bits, i32 noundef -2147483648)
  %14 = load i32, ptr @hf_elink_icontrol_forced_speed, align 4
  %15 = add i32 %4, 2
  %16 = tail call ptr @proto_tree_add_item(ptr noundef %1, i32 noundef %14, ptr noundef %3, i32 noundef %15, i32 noundef 2, i32 noundef -2147483648)
  br label %17

17:                                               ; preds = %10, %8
  %.0 = phi i32 [ %5, %8 ], [ 4, %10 ]
  ret i32 %.0
}